; Function Attrs: mustprogress nofree norecurse nosync nounwind willreturn memory(argmem: readwrite) uwtable
define dso_local noundef float @_ZN3ozz9animation11SamplingJob7Context4StepERKNS0_9AnimationEf(ptr noundef nonnull align 8 captures(none) dereferenceable(192) %0, ptr noundef nonnull align 8 dereferenceable(304) %1, float noundef %2) local_unnamed_addr #3 align 2 {
  %4 = load ptr, ptr %0, align 8, !tbaa !41
  %.not = icmp eq ptr %4, %1
  br i1 %.not, label %._crit_edge, label %5

._crit_edge:                                      ; preds = %3
  %.phi.trans.insert = getelementptr inbounds nuw i8, ptr %0, i64 8
  %.pre = load float, ptr %.phi.trans.insert, align 8, !tbaa !42
  br label %9

5:                                                ; preds = %3
  %6 = getelementptr inbounds nuw i8, ptr %0, i64 56
  store i32 0, ptr %6, align 8, !tbaa !43
  %7 = getelementptr inbounds nuw i8, ptr %0, i64 96
  store i32 0, ptr %7, align 8, !tbaa !44
  %8 = getelementptr inbounds nuw i8, ptr %0, i64 136
  store i32 0, ptr %8, align 8, !tbaa !45
  store ptr %1, ptr %0, align 8, !tbaa !41
  br label %9

9:                                                ; preds = %._crit_edge, %5
  %10 = phi float [ %.pre, %._crit_edge ], [ 0.000000e+00, %5 ]
  %11 = getelementptr inbounds nuw i8, ptr %0, i64 8
  store float %2, ptr %11, align 8, !tbaa !42
  ret float %10
}